target datalayout = "e-m:e-p270:32:32-p271:32:32-p272:64:64-i64:64-i128:128-f80:128-n8:16:32:64-S128"
target triple = "x86_64-pc-linux-gnu"

; Function Attrs: nounwind uwtable
define hidden i32 @psa_generic_status_to_mbedtls(i32 noundef %0) #0 {
  %2 = alloca i32, align 4
  %3 = alloca i32, align 4
  store i32 %0, ptr %3, align 4, !tbaa !3
  %4 = load i32, ptr %3, align 4, !tbaa !3
  switch i32 %4, label %10 [
    i32 0, label %5
    i32 -134, label %6
    i32 -151, label %7
    i32 -145, label %8
    i32 -147, label %8
    i32 -133, label %9
  ]

5:                                                ; preds = %1
  store i32 0, ptr %2, align 4
  br label %11

6:                                                ; preds = %1
  store i32 -114, ptr %2, align 4
  br label %11

7:                                                ; preds = %1
  store i32 -110, ptr %2, align 4
  br label %11

8:                                                ; preds = %1, %1
  store i32 -112, ptr %2, align 4
  br label %11

9:                                                ; preds = %1
  br label %10

10:                                               ; preds = %1, %9
  store i32 -1, ptr %2, align 4
  br label %11

11:                                               ; preds = %10, %8, %7, %6, %5
  %12 = load i32, ptr %2, align 4
  ret i32 %12
}

; Function Attrs: nounwind uwtable
define hidden i32 @psa_pk_status_to_mbedtls(i32 noundef %0) #0 {
  %2 = alloca i32, align 4
  %3 = alloca i32, align 4
  store i32 %0, ptr %3, align 4, !tbaa !3
  %4 = load i32, ptr %3, align 4, !tbaa !3
  switch i32 %4, label %13 [
    i32 -136, label %5
    i32 -138, label %6
    i32 -134, label %7
    i32 -135, label %8
    i32 -133, label %9
    i32 -141, label %10
    i32 -137, label %11
    i32 -152, label %12
    i32 -153, label %12
    i32 -146, label %12
  ]

5:                                                ; preds = %1
  store i32 -15616, ptr %2, align 4
  br label %16

6:                                                ; preds = %1
  store i32 -14464, ptr %2, align 4
  br label %16

7:                                                ; preds = %1
  store i32 -14720, ptr %2, align 4
  br label %16

8:                                                ; preds = %1
  store i32 -14976, ptr %2, align 4
  br label %16

9:                                                ; preds = %1
  store i32 -16128, ptr %2, align 4
  br label %16

10:                                               ; preds = %1
  store i32 -16256, ptr %2, align 4
  br label %16

11:                                               ; preds = %1
  store i32 -16000, ptr %2, align 4
  br label %16

12:                                               ; preds = %1, %1, %1
  store i32 -15872, ptr %2, align 4
  br label %16

13:                                               ; preds = %1
  %14 = load i32, ptr %3, align 4, !tbaa !3
  %15 = call i32 @psa_generic_status_to_mbedtls(i32 noundef %14)
  store i32 %15, ptr %2, align 4
  br label %16

16:                                               ; preds = %13, %12, %11, %10, %9, %8, %7, %6, %5
  %17 = load i32, ptr %2, align 4
  ret i32 %17
}