; Function Attrs: mustprogress nofree norecurse nosync nounwind willreturn memory(none) uwtable
define hidden range(i32 -16256, 1) i32 @psa_pk_status_to_mbedtls(i32 noundef %0) local_unnamed_addr #0 {
  switch i32 %0, label %11 [
    i32 -136, label %psa_generic_status_to_mbedtls.exit
    i32 -138, label %2
    i32 -134, label %3
    i32 -135, label %4
    i32 -133, label %5
    i32 -141, label %6
    i32 -137, label %7
    i32 -152, label %8
    i32 -153, label %8
    i32 -146, label %8
    i32 0, label %psa_generic_status_to_mbedtls.exit.fold.split
    i32 -147, label %10
    i32 -151, label %9
    i32 -145, label %10
  ]

2:                                                ; preds = %1
  br label %psa_generic_status_to_mbedtls.exit

3:                                                ; preds = %1
  br label %psa_generic_status_to_mbedtls.exit

4:                                                ; preds = %1
  br label %psa_generic_status_to_mbedtls.exit

5:                                                ; preds = %1
  br label %psa_generic_status_to_mbedtls.exit

6:                                                ; preds = %1
  br label %psa_generic_status_to_mbedtls.exit

7:                                                ; preds = %1
  br label %psa_generic_status_to_mbedtls.exit

8:                                                ; preds = %1, %1, %1
  br label %psa_generic_status_to_mbedtls.exit

9:                                                ; preds = %1
  br label %psa_generic_status_to_mbedtls.exit

10:                                               ; preds = %1, %1
  br label %psa_generic_status_to_mbedtls.exit

11:                                               ; preds = %1
  br label %psa_generic_status_to_mbedtls.exit

psa_generic_status_to_mbedtls.exit.fold.split:    ; preds = %1
  br label %psa_generic_status_to_mbedtls.exit

psa_generic_status_to_mbedtls.exit:               ; preds = %1, %psa_generic_status_to_mbedtls.exit.fold.split, %11, %10, %9, %8, %7, %6, %5, %4, %3, %2
  %.0 = phi i32 [ -15872, %8 ], [ -16000, %7 ], [ -16256, %6 ], [ -16128, %5 ], [ -14976, %4 ], [ -14720, %3 ], [ -14464, %2 ], [ -15616, %1 ], [ -1, %11 ], [ -112, %10 ], [ -110, %9 ], [ 0, %psa_generic_status_to_mbedtls.exit.fold.split ]
  ret i32 %.0
}